target datalayout = "e-m:e-p270:32:32-p271:32:32-p272:64:64-i64:64-i128:128-f80:128-n8:16:32:64-S128"
target triple = "x86_64-pc-linux-gnu"

%struct.FxuHeapSingle = type { ptr, i32, i32, i32 }
%struct.FxuSingle = type { i32, i32, i32, ptr, ptr, ptr, ptr }

; Function Attrs: nounwind uwtable
define i32 @Fxu_HeapSingleReadMaxWeight(ptr noundef %0) #0 {
  %2 = alloca i32, align 4
  %3 = alloca ptr, align 8
  store ptr %0, ptr %3, align 8, !tbaa !3
  %4 = load ptr, ptr %3, align 8, !tbaa !3
  %5 = getelementptr inbounds nuw %struct.FxuHeapSingle, ptr %4, i32 0, i32 1
  %6 = load i32, ptr %5, align 8, !tbaa !8
  %7 = icmp eq i32 %6, 0
  br i1 %7, label %8, label %9

8:                                                ; preds = %1
  store i32 -1, ptr %2, align 4
  br label %17

9:                                                ; preds = %1
  %10 = load ptr, ptr %3, align 8, !tbaa !3
  %11 = getelementptr inbounds nuw %struct.FxuHeapSingle, ptr %10, i32 0, i32 0
  %12 = load ptr, ptr %11, align 8, !tbaa !13
  %13 = getelementptr inbounds ptr, ptr %12, i64 1
  %14 = load ptr, ptr %13, align 8, !tbaa !14
  %15 = getelementptr inbounds nuw %struct.FxuSingle, ptr %14, i32 0, i32 2
  %16 = load i32, ptr %15, align 8, !tbaa !20
  store i32 %16, ptr %2, align 4
  br label %17

17:                                               ; preds = %9, %8
  %18 = load i32, ptr %2, align 4
  ret i32 %18
}